; Function Attrs: nounwind uwtable
define ptr @l_Array_mapMUnsafe_map___at_Lean_Meta_ArgsPacker_Mutual_uncurryType___spec__1___boxed(ptr noundef %0, ptr noundef %1, ptr noundef %2, ptr noundef %3, ptr noundef %4, ptr noundef %5, ptr noundef %6, ptr noundef %7) local_unnamed_addr #1 {
  %9 = getelementptr i8, ptr %0, i64 8
  %.val15 = load i64, ptr %9, align 8, !tbaa !4
  %10 = ptrtoint ptr %0 to i64
  %11 = and i64 %10, 1
  %.not = icmp eq i64 %11, 0
  br i1 %.not, label %12, label %lean_dec.exit12

12:                                               ; preds = %8
  %13 = load i32, ptr %0, align 4, !tbaa !8
  %14 = icmp sgt i32 %13, 1
  br i1 %14, label %15, label %17, !prof !11

15:                                               ; preds = %12
  %16 = add nsw i32 %13, -1
  store i32 %16, ptr %0, align 4, !tbaa !8
  br label %lean_dec.exit12

17:                                               ; preds = %12
  %.not.i = icmp eq i32 %13, 0
  br i1 %.not.i, label %lean_dec.exit12, label %18

18:                                               ; preds = %17
  tail call void @lean_dec_ref_cold(ptr noundef nonnull %0) #7
  br label %lean_dec.exit12

lean_dec.exit12:                                  ; preds = %18, %17, %15, %8
  %19 = getelementptr i8, ptr %1, i64 8
  %.val = load i64, ptr %19, align 8, !tbaa !4
  %20 = ptrtoint ptr %1 to i64
  %21 = and i64 %20, 1
  %.not16 = icmp eq i64 %21, 0
  br i1 %.not16, label %22, label %lean_dec.exit

22:                                               ; preds = %lean_dec.exit12
  %23 = load i32, ptr %1, align 4, !tbaa !8
  %24 = icmp sgt i32 %23, 1
  br i1 %24, label %25, label %27, !prof !11

25:                                               ; preds = %22
  %26 = add nsw i32 %23, -1
  store i32 %26, ptr %1, align 4, !tbaa !8
  br label %lean_dec.exit

27:                                               ; preds = %22
  %.not.i13 = icmp eq i32 %23, 0
  br i1 %.not.i13, label %lean_dec.exit, label %28

28:                                               ; preds = %27
  tail call void @lean_dec_ref_cold(ptr noundef nonnull %1) #7
  br label %lean_dec.exit

lean_dec.exit:                                    ; preds = %28, %27, %25, %lean_dec.exit12
  %29 = tail call ptr @l_Array_mapMUnsafe_map___at_Lean_Meta_ArgsPacker_Mutual_uncurryType___spec__1(i64 noundef %.val15, i64 noundef %.val, ptr noundef %2, ptr noundef %3, ptr noundef %4, ptr noundef %5, ptr noundef %6, ptr noundef %7)
  ret ptr %29
}